target datalayout = "e-m:e-p270:32:32-p271:32:32-p272:64:64-i64:64-i128:128-f80:128-n8:16:32:64-S128"
target triple = "x86_64-pc-linux-gnu"

%struct._zend_phar_globals = type { %struct._zend_array, %struct._zend_array, ptr, %struct._zend_array, i32, i32, ptr, i32, i32, i32, i32, i8, i8, i8, i32, i32, i32, i32, ptr, ptr, ptr, ptr, ptr, ptr, ptr, ptr, ptr, ptr, ptr, ptr, ptr, ptr, ptr, ptr, ptr, ptr, ptr, ptr, ptr, ptr, ptr, i32, i32, ptr, i32, ptr, i32, ptr, i32, ptr, %struct._zend_array }
%struct._zend_array = type { %struct._zend_refcounted_h, %union.anon.0, i32, %union.anon.1, i32, i32, i32, i32, i64, ptr }
%struct._zend_refcounted_h = type { i32, %union.anon }
%union.anon = type { i32 }
%union.anon.0 = type { i32 }
%union.anon.1 = type { ptr }
%struct._zend_executor_globals = type { %struct._zval_struct, %struct._zval_struct, [32 x ptr], ptr, ptr, %struct._zend_array, %struct._zend_array, ptr, i32, i32, ptr, ptr, ptr, ptr, ptr, ptr, i64, ptr, ptr, i32, i32, i64, i32, i32, i32, i8, i8, %struct.zend_atomic_bool_s, %struct.zend_atomic_bool_s, ptr, i64, ptr, ptr, %struct._zend_array, %struct._zend_array, i32, i8, %struct._zval_struct, %struct._zval_struct, %struct._zend_stack, %struct._zend_stack, %struct._zend_stack, ptr, i32, i32, i64, ptr, ptr, ptr, %struct._zend_objects_store, ptr, ptr, ptr, [3 x %struct._zend_op], ptr, i8, i8, i64, i32, i32, ptr, [16 x %struct._HashTableIterator], ptr, %union._zend_function, %struct._zend_op, %struct._zend_array, i64, %struct.zend_get_gc_buffer, ptr, ptr, ptr, i64, i8, i32, ptr, ptr, i64, %struct._zend_call_stack, i64, i64, [6 x ptr] }
%struct.zend_atomic_bool_s = type { i8 }
%struct._zval_struct = type { %union._zend_value, %union.anon.3, %union.anon.6 }
%union._zend_value = type { i64 }
%union.anon.3 = type { i32 }
%union.anon.6 = type { i32 }
%struct._zend_stack = type { i32, i32, i32, ptr }
%struct._zend_objects_store = type { ptr, i32, i32, i32 }
%struct._HashTableIterator = type { ptr, i32, i32 }
%union._zend_function = type { %struct._zend_op_array }
%struct._zend_op_array = type { i8, [3 x i8], i32, ptr, ptr, ptr, i32, i32, ptr, ptr, ptr, ptr, i32, i32, i32, i32, ptr, ptr, ptr, ptr, ptr, i32, i32, ptr, ptr, ptr, i32, i32, i32, i32, ptr, ptr, [6 x ptr] }
%struct._zend_op = type { ptr, %union._znode_op, %union._znode_op, %union._znode_op, i32, i32, i8, i8, i8, i8 }
%union._znode_op = type { i32 }
%struct.zend_get_gc_buffer = type { ptr, ptr, ptr }
%struct._zend_call_stack = type { ptr, i64 }
%struct._zend_string = type { %struct._zend_refcounted_h, i64, i64, [1 x i8] }
%struct._phar_archive_data = type { ptr, i32, ptr, i32, ptr, i32, [12 x i8], i64, i64, %struct._zend_array, %struct._zend_array, %struct._zend_array, i32, i32, i32, ptr, ptr, i32, i32, i32, ptr, %struct._phar_metadata_tracker, i32, i16 }
%struct._phar_metadata_tracker = type { %struct._zval_struct, ptr }

@phar_globals = hidden global %struct._zend_phar_globals zeroinitializer, align 8
@executor_globals = external global %struct._zend_executor_globals, align 8
@cached_alias = hidden global %struct._zend_array zeroinitializer, align 8
@cached_phars = hidden global %struct._zend_array zeroinitializer, align 8
@module_registry = external global %struct._zend_array, align 8
@.str.121 = private unnamed_addr constant [4 x i8] c"bz2\00", align 1
@.str.122 = private unnamed_addr constant [5 x i8] c"zlib\00", align 1

; Function Attrs: nounwind uwtable
define internal void @phar_split_cache_list() #0 {
  %1 = alloca ptr, align 8
  %2 = alloca ptr, align 8
  %3 = alloca i64, align 8
  %4 = alloca ptr, align 8
  %5 = alloca ptr, align 8
  %6 = alloca i64, align 8
  %7 = alloca ptr, align 8
  %8 = alloca ptr, align 8
  %9 = alloca ptr, align 8
  %10 = alloca ptr, align 8
  %11 = alloca [2 x i8], align 1
  %12 = alloca ptr, align 8
  %13 = alloca i32, align 4
  %14 = alloca i64, align 8
  store i32 0, ptr %13, align 4
  %15 = load ptr, ptr getelementptr inbounds (%struct._zend_phar_globals, ptr @phar_globals, i32 0, i32 6), align 8
  %16 = icmp ne ptr %15, null
  br i1 %16, label %17, label %22

17:                                               ; preds = %0
  %18 = load ptr, ptr getelementptr inbounds (%struct._zend_phar_globals, ptr @phar_globals, i32 0, i32 6), align 8
  %19 = getelementptr inbounds i8, ptr %18, i64 0
  %20 = load i8, ptr %19, align 1
  %21 = icmp ne i8 %20, 0
  br i1 %21, label %23, label %22

22:                                               ; preds = %17, %0
  br label %92

23:                                               ; preds = %17
  %24 = getelementptr inbounds [2 x i8], ptr %11, i64 0, i64 0
  store i8 58, ptr %24, align 1
  %25 = getelementptr inbounds [2 x i8], ptr %11, i64 0, i64 1
  store i8 0, ptr %25, align 1
  %26 = load ptr, ptr getelementptr inbounds (%struct._zend_phar_globals, ptr @phar_globals, i32 0, i32 6), align 8
  %27 = call noalias ptr @_estrdup(ptr noundef %26)
  store ptr %27, ptr %7, align 8
  store i32 1, ptr getelementptr inbounds (%struct._zend_phar_globals, ptr @phar_globals, i32 0, i32 14), align 4
  call void @zend_init_rsrc_list()
  store i64 1, ptr getelementptr inbounds (%struct._zend_executor_globals, ptr @executor_globals, i32 0, i32 33, i32 8), align 8
  store ptr @module_registry, ptr %1, align 8
  store ptr @.str.121, ptr %2, align 8
  store i64 3, ptr %3, align 8
  %28 = load ptr, ptr %1, align 8
  %29 = load ptr, ptr %2, align 8
  %30 = load i64, ptr %3, align 8
  %31 = call ptr @zend_hash_str_find(ptr noundef %28, ptr noundef %29, i64 noundef %30) #13
  %32 = icmp ne ptr %31, null
  %33 = zext i1 %32 to i32
  store i32 %33, ptr getelementptr inbounds (%struct._zend_phar_globals, ptr @phar_globals, i32 0, i32 10), align 4
  store ptr @module_registry, ptr %4, align 8
  store ptr @.str.122, ptr %5, align 8
  store i64 4, ptr %6, align 8
  %34 = load ptr, ptr %4, align 8
  %35 = load ptr, ptr %5, align 8
  %36 = load i64, ptr %6, align 8
  %37 = call ptr @zend_hash_str_find(ptr noundef %34, ptr noundef %35, i64 noundef %36) #13
  %38 = icmp ne ptr %37, null
  %39 = zext i1 %38 to i32
  store i32 %39, ptr getelementptr inbounds (%struct._zend_phar_globals, ptr @phar_globals, i32 0, i32 9), align 8
  call void @_zend_hash_init(ptr noundef @cached_phars, i32 noundef 8, ptr noundef @destroy_phar_data, i1 noundef zeroext true)
  call void @_zend_hash_init(ptr noundef @cached_alias, i32 noundef 8, ptr noundef null, i1 noundef zeroext true)
  call void @_zend_hash_init(ptr noundef getelementptr inbounds (%struct._zend_phar_globals, ptr @phar_globals, i32 0, i32 1), i32 noundef 8, ptr noundef @destroy_phar_data, i1 noundef zeroext true)
  call void @_zend_hash_init(ptr noundef getelementptr inbounds (%struct._zend_phar_globals, ptr @phar_globals, i32 0, i32 3), i32 noundef 8, ptr noundef null, i1 noundef zeroext true)
  store i32 1, ptr getelementptr inbounds (%struct._zend_phar_globals, ptr @phar_globals, i32 0, i32 7), align 8
  store i32 1, ptr getelementptr inbounds (%struct._zend_phar_globals, ptr @phar_globals, i32 0, i32 8), align 4
  %40 = load ptr, ptr %7, align 8
  %41 = getelementptr inbounds [2 x i8], ptr %11, i64 0, i64 0
  %42 = call ptr @strtok_r(ptr noundef %40, ptr noundef %41, ptr noundef %9) #13
  store ptr %42, ptr %8, align 8
  br label %43

43:                                               ; preds = %83, %23
  %44 = load ptr, ptr %8, align 8
  %45 = icmp ne ptr %44, null
  br i1 %45, label %46, label %86

46:                                               ; preds = %43
  %47 = load ptr, ptr %8, align 8
  %48 = call ptr @strchr(ptr noundef %47, i32 noundef 58) #14
  store ptr %48, ptr %10, align 8
  %49 = load ptr, ptr %10, align 8
  %50 = icmp ne ptr %49, null
  br i1 %50, label %51, label %57

51:                                               ; preds = %46
  %52 = load ptr, ptr %10, align 8
  %53 = load ptr, ptr %8, align 8
  %54 = ptrtoint ptr %52 to i64
  %55 = ptrtoint ptr %53 to i64
  %56 = sub i64 %54, %55
  store i64 %56, ptr %14, align 8
  br label %60

57:                                               ; preds = %46
  %58 = load ptr, ptr %8, align 8
  %59 = call i64 @strlen(ptr noundef %58) #14
  store i64 %59, ptr %14, align 8
  br label %60

60:                                               ; preds = %57, %51
  %61 = load ptr, ptr %8, align 8
  %62 = load i64, ptr %14, align 8
  %63 = call i32 @phar_open_from_filename(ptr noundef %61, i64 noundef %62, ptr noundef null, i64 noundef 0, i32 noundef 0, ptr noundef %12, ptr noundef null)
  %64 = icmp eq i32 0, %63
  br i1 %64, label %65, label %76

65:                                               ; preds = %60
  %66 = load i32, ptr %13, align 4
  %67 = add i32 %66, 1
  store i32 %67, ptr %13, align 4
  %68 = load ptr, ptr %12, align 8
  %69 = getelementptr inbounds %struct._phar_archive_data, ptr %68, i32 0, i32 22
  store i32 %66, ptr %69, align 8
  %70 = load ptr, ptr %12, align 8
  %71 = getelementptr inbounds %struct._phar_archive_data, ptr %70, i32 0, i32 15
  %72 = load ptr, ptr %71, align 8
  %73 = call i32 @_php_stream_free(ptr noundef %72, i32 noundef 3)
  %74 = load ptr, ptr %12, align 8
  %75 = getelementptr inbounds %struct._phar_archive_data, ptr %74, i32 0, i32 15
  store ptr null, ptr %75, align 8
  br label %82

76:                                               ; preds = %60
  store i32 0, ptr getelementptr inbounds (%struct._zend_phar_globals, ptr @phar_globals, i32 0, i32 8), align 4
  store i32 0, ptr getelementptr inbounds (%struct._zend_phar_globals, ptr @phar_globals, i32 0, i32 7), align 8
  %77 = load ptr, ptr %7, align 8
  call void @_efree(ptr noundef %77)
  call void @zend_hash_destroy(ptr noundef getelementptr inbounds (%struct._zend_phar_globals, ptr @phar_globals, i32 0, i32 1))
  br label %78

78:                                               ; preds = %76
  store i32 8, ptr getelementptr inbounds (%struct._zend_phar_globals, ptr @phar_globals, i32 0, i32 1, i32 1), align 8
  br label %79

79:                                               ; preds = %78
  call void @zend_hash_destroy(ptr noundef getelementptr inbounds (%struct._zend_phar_globals, ptr @phar_globals, i32 0, i32 3))
  br label %80

80:                                               ; preds = %79
  store i32 8, ptr getelementptr inbounds (%struct._zend_phar_globals, ptr @phar_globals, i32 0, i32 3, i32 1), align 8
  br label %81

81:                                               ; preds = %80
  call void @zend_hash_destroy(ptr noundef @cached_phars)
  call void @zend_hash_destroy(ptr noundef @cached_alias)
  call void @zend_hash_graceful_reverse_destroy(ptr noundef getelementptr inbounds (%struct._zend_executor_globals, ptr @executor_globals, i32 0, i32 33))
  call void @llvm.memset.p0.i64(ptr align 8 getelementptr inbounds (%struct._zend_executor_globals, ptr @executor_globals, i32 0, i32 33), i8 0, i64 56, i1 false)
  store i32 0, ptr getelementptr inbounds (%struct._zend_phar_globals, ptr @phar_globals, i32 0, i32 14), align 4
  br label %92

82:                                               ; preds = %65
  br label %83

83:                                               ; preds = %82
  %84 = getelementptr inbounds [2 x i8], ptr %11, i64 0, i64 0
  %85 = call ptr @strtok_r(ptr noundef null, ptr noundef %84, ptr noundef %9) #13
  store ptr %85, ptr %8, align 8
  br label %43

86:                                               ; preds = %43
  store i32 0, ptr getelementptr inbounds (%struct._zend_phar_globals, ptr @phar_globals, i32 0, i32 8), align 4
  store i32 0, ptr getelementptr inbounds (%struct._zend_phar_globals, ptr @phar_globals, i32 0, i32 14), align 4
  call void @zend_hash_destroy(ptr noundef @cached_phars)
  call void @zend_hash_destroy(ptr noundef @cached_alias)
  call void @llvm.memcpy.p0.p0.i64(ptr align 8 @cached_phars, ptr align 8 getelementptr inbounds (%struct._zend_phar_globals, ptr @phar_globals, i32 0, i32 1), i64 56, i1 false)
  call void @llvm.memcpy.p0.p0.i64(ptr align 8 @cached_alias, ptr align 8 getelementptr inbounds (%struct._zend_phar_globals, ptr @phar_globals, i32 0, i32 3), i64 56, i1 false)
  br label %87

87:                                               ; preds = %86
  store i32 8, ptr getelementptr inbounds (%struct._zend_phar_globals, ptr @phar_globals, i32 0, i32 1, i32 1), align 8
  br label %88

88:                                               ; preds = %87
  br label %89

89:                                               ; preds = %88
  store i32 8, ptr getelementptr inbounds (%struct._zend_phar_globals, ptr @phar_globals, i32 0, i32 3, i32 1), align 8
  br label %90

90:                                               ; preds = %89
  call void @zend_hash_graceful_reverse_destroy(ptr noundef getelementptr inbounds (%struct._zend_executor_globals, ptr @executor_globals, i32 0, i32 33))
  call void @llvm.memset.p0.i64(ptr align 8 getelementptr inbounds (%struct._zend_executor_globals, ptr @executor_globals, i32 0, i32 33), i8 0, i64 56, i1 false)
  %91 = load ptr, ptr %7, align 8
  call void @_efree(ptr noundef %91)
  br label %92

92:                                               ; preds = %90, %81, %22
  ret void
}

; Function Attrs: nounwind uwtable
define hidden i32 @phar_ini_cache_list(ptr noundef %0, ptr noundef %1, ptr noundef %2, ptr noundef %3, ptr noundef %4, i32 noundef %5) #0 {
  %7 = alloca ptr, align 8
  %8 = alloca ptr, align 8
  %9 = alloca ptr, align 8
  %10 = alloca ptr, align 8
  %11 = alloca ptr, align 8
  %12 = alloca i32, align 4
  store ptr %0, ptr %7, align 8
  store ptr %1, ptr %8, align 8
  store ptr %2, ptr %9, align 8
  store ptr %3, ptr %10, align 8
  store ptr %4, ptr %11, align 8
  store i32 %5, ptr %12, align 4
  %13 = load ptr, ptr %8, align 8
  %14 = getelementptr inbounds %struct._zend_string, ptr %13, i32 0, i32 3
  %15 = getelementptr inbounds [1 x i8], ptr %14, i64 0, i64 0
  store ptr %15, ptr getelementptr inbounds (%struct._zend_phar_globals, ptr @phar_globals, i32 0, i32 6), align 8
  %16 = load i32, ptr %12, align 4
  %17 = icmp eq i32 %16, 1
  br i1 %17, label %18, label %19

18:                                               ; preds = %6
  call void @phar_split_cache_list()
  br label %19

19:                                               ; preds = %18, %6
  ret i32 0
}