; Function Attrs: nounwind uwtable
define hidden noundef i32 @phar_ini_cache_list(ptr nocapture readnone %0, ptr noundef %1, ptr nocapture readnone %2, ptr nocapture readnone %3, ptr nocapture readnone %4, i32 noundef %5) #0 {
  %7 = alloca ptr, align 8
  %8 = alloca [2 x i8], align 1
  %9 = alloca ptr, align 8
  %10 = getelementptr inbounds i8, ptr %1, i64 24
  store ptr %10, ptr getelementptr inbounds (%struct._zend_phar_globals, ptr @phar_globals, i64 0, i32 6), align 8
  %11 = icmp eq i32 %5, 1
  br i1 %11, label %12, label %45

12:                                               ; preds = %6
  call void @llvm.lifetime.start.p0(i64 8, ptr nonnull %7)
  call void @llvm.lifetime.start.p0(i64 2, ptr nonnull %8)
  call void @llvm.lifetime.start.p0(i64 8, ptr nonnull %9)
  %13 = load i8, ptr %10, align 1
  %.not21.i = icmp eq i8 %13, 0
  br i1 %.not21.i, label %phar_split_cache_list.exit, label %14

14:                                               ; preds = %12
  store i8 58, ptr %8, align 1
  %15 = getelementptr inbounds i8, ptr %8, i64 1
  store i8 0, ptr %15, align 1
  %16 = tail call noalias ptr @_estrdup(ptr noundef nonnull %10) #23
  store i32 1, ptr getelementptr inbounds (%struct._zend_phar_globals, ptr @phar_globals, i64 0, i32 14), align 4
  tail call void @zend_init_rsrc_list() #23
  store i64 1, ptr getelementptr inbounds (%struct._zend_executor_globals, ptr @executor_globals, i64 0, i32 33, i32 8), align 8
  %17 = tail call ptr @zend_hash_str_find(ptr noundef nonnull @module_registry, ptr noundef nonnull @.str.121, i64 noundef 3) #23
  %18 = icmp ne ptr %17, null
  %19 = zext i1 %18 to i32
  store i32 %19, ptr getelementptr inbounds (%struct._zend_phar_globals, ptr @phar_globals, i64 0, i32 10), align 4
  %20 = tail call ptr @zend_hash_str_find(ptr noundef nonnull @module_registry, ptr noundef nonnull @.str.122, i64 noundef 4) #23
  %21 = icmp ne ptr %20, null
  %22 = zext i1 %21 to i32
  store i32 %22, ptr getelementptr inbounds (%struct._zend_phar_globals, ptr @phar_globals, i64 0, i32 9), align 8
  tail call void @_zend_hash_init(ptr noundef nonnull @cached_phars, i32 noundef 8, ptr noundef nonnull @destroy_phar_data, i1 noundef zeroext true) #23
  tail call void @_zend_hash_init(ptr noundef nonnull @cached_alias, i32 noundef 8, ptr noundef null, i1 noundef zeroext true) #23
  tail call void @_zend_hash_init(ptr noundef nonnull getelementptr inbounds (%struct._zend_phar_globals, ptr @phar_globals, i64 0, i32 1), i32 noundef 8, ptr noundef nonnull @destroy_phar_data, i1 noundef zeroext true) #23
  tail call void @_zend_hash_init(ptr noundef nonnull getelementptr inbounds (%struct._zend_phar_globals, ptr @phar_globals, i64 0, i32 3), i32 noundef 8, ptr noundef null, i1 noundef zeroext true) #23
  store i32 1, ptr getelementptr inbounds (%struct._zend_phar_globals, ptr @phar_globals, i64 0, i32 7), align 8
  store i32 1, ptr getelementptr inbounds (%struct._zend_phar_globals, ptr @phar_globals, i64 0, i32 8), align 4
  %23 = call ptr @strtok_r(ptr noundef %16, ptr noundef nonnull %8, ptr noundef nonnull %7) #23
  %.not2224.i = icmp eq ptr %23, null
  br i1 %.not2224.i, label %._crit_edge.i, label %.lr.ph.i

.lr.ph.i:                                         ; preds = %14, %34
  %.01726.i = phi i32 [ %35, %34 ], [ 0, %14 ]
  %.01825.i = phi ptr [ %43, %34 ], [ %23, %14 ]
  %24 = call ptr @strchr(ptr noundef nonnull dereferenceable(1) %.01825.i, i32 noundef 58) #24
  %.not23.i = icmp eq ptr %24, null
  br i1 %.not23.i, label %29, label %25

25:                                               ; preds = %.lr.ph.i
  %26 = ptrtoint ptr %24 to i64
  %27 = ptrtoint ptr %.01825.i to i64
  %28 = sub i64 %26, %27
  br label %31

29:                                               ; preds = %.lr.ph.i
  %30 = call i64 @strlen(ptr noundef nonnull dereferenceable(1) %.01825.i) #24
  br label %31

31:                                               ; preds = %29, %25
  %.0.i = phi i64 [ %28, %25 ], [ %30, %29 ]
  %32 = call i32 @phar_open_from_filename(ptr noundef nonnull %.01825.i, i64 noundef %.0.i, ptr noundef null, i64 noundef 0, i32 noundef 0, ptr noundef nonnull %9, ptr noundef null)
  %33 = icmp eq i32 %32, 0
  br i1 %33, label %34, label %44

34:                                               ; preds = %31
  %35 = add i32 %.01726.i, 1
  %36 = load ptr, ptr %9, align 8
  %37 = getelementptr inbounds i8, ptr %36, i64 320
  store i32 %.01726.i, ptr %37, align 8
  %38 = getelementptr inbounds i8, ptr %36, i64 256
  %39 = load ptr, ptr %38, align 8
  %40 = call i32 @_php_stream_free(ptr noundef %39, i32 noundef 3) #23
  %41 = load ptr, ptr %9, align 8
  %42 = getelementptr inbounds i8, ptr %41, i64 256
  store ptr null, ptr %42, align 8
  %43 = call ptr @strtok_r(ptr noundef null, ptr noundef nonnull %8, ptr noundef nonnull %7) #23
  %.not22.i = icmp eq ptr %43, null
  br i1 %.not22.i, label %._crit_edge.i, label %.lr.ph.i

44:                                               ; preds = %31
  store i32 0, ptr getelementptr inbounds (%struct._zend_phar_globals, ptr @phar_globals, i64 0, i32 8), align 4
  store i32 0, ptr getelementptr inbounds (%struct._zend_phar_globals, ptr @phar_globals, i64 0, i32 7), align 8
  call void @_efree(ptr noundef %16) #23
  call void @zend_hash_destroy(ptr noundef nonnull getelementptr inbounds (%struct._zend_phar_globals, ptr @phar_globals, i64 0, i32 1)) #23
  store i32 8, ptr getelementptr inbounds (%struct._zend_phar_globals, ptr @phar_globals, i64 0, i32 1, i32 1), align 8
  call void @zend_hash_destroy(ptr noundef nonnull getelementptr inbounds (%struct._zend_phar_globals, ptr @phar_globals, i64 0, i32 3)) #23
  store i32 8, ptr getelementptr inbounds (%struct._zend_phar_globals, ptr @phar_globals, i64 0, i32 3, i32 1), align 8
  call void @zend_hash_destroy(ptr noundef nonnull @cached_phars) #23
  call void @zend_hash_destroy(ptr noundef nonnull @cached_alias) #23
  call void @zend_hash_graceful_reverse_destroy(ptr noundef nonnull getelementptr inbounds (%struct._zend_executor_globals, ptr @executor_globals, i64 0, i32 33)) #23
  call void @llvm.memset.p0.i64(ptr noundef nonnull align 8 dereferenceable(56) getelementptr inbounds (%struct._zend_executor_globals, ptr @executor_globals, i64 0, i32 33), i8 0, i64 56, i1 false)
  store i32 0, ptr getelementptr inbounds (%struct._zend_phar_globals, ptr @phar_globals, i64 0, i32 14), align 4
  br label %phar_split_cache_list.exit

._crit_edge.i:                                    ; preds = %34, %14
  store i32 0, ptr getelementptr inbounds (%struct._zend_phar_globals, ptr @phar_globals, i64 0, i32 8), align 4
  store i32 0, ptr getelementptr inbounds (%struct._zend_phar_globals, ptr @phar_globals, i64 0, i32 14), align 4
  call void @zend_hash_destroy(ptr noundef nonnull @cached_phars) #23
  call void @zend_hash_destroy(ptr noundef nonnull @cached_alias) #23
  call void @llvm.memcpy.p0.p0.i64(ptr noundef nonnull align 8 dereferenceable(56) @cached_phars, ptr noundef nonnull align 8 dereferenceable(56) getelementptr inbounds (%struct._zend_phar_globals, ptr @phar_globals, i64 0, i32 1), i64 56, i1 false)
  call void @llvm.memcpy.p0.p0.i64(ptr noundef nonnull align 8 dereferenceable(56) @cached_alias, ptr noundef nonnull align 8 dereferenceable(56) getelementptr inbounds (%struct._zend_phar_globals, ptr @phar_globals, i64 0, i32 3), i64 56, i1 false)
  store i32 8, ptr getelementptr inbounds (%struct._zend_phar_globals, ptr @phar_globals, i64 0, i32 1, i32 1), align 8
  store i32 8, ptr getelementptr inbounds (%struct._zend_phar_globals, ptr @phar_globals, i64 0, i32 3, i32 1), align 8
  call void @zend_hash_graceful_reverse_destroy(ptr noundef nonnull getelementptr inbounds (%struct._zend_executor_globals, ptr @executor_globals, i64 0, i32 33)) #23
  call void @llvm.memset.p0.i64(ptr noundef nonnull align 8 dereferenceable(56) getelementptr inbounds (%struct._zend_executor_globals, ptr @executor_globals, i64 0, i32 33), i8 0, i64 56, i1 false)
  call void @_efree(ptr noundef %16) #23
  br label %phar_split_cache_list.exit

phar_split_cache_list.exit:                       ; preds = %12, %44, %._crit_edge.i
  call void @llvm.lifetime.end.p0(i64 8, ptr nonnull %7)
  call void @llvm.lifetime.end.p0(i64 2, ptr nonnull %8)
  call void @llvm.lifetime.end.p0(i64 8, ptr nonnull %9)
  br label %45

45:                                               ; preds = %phar_split_cache_list.exit, %6
  ret i32 0
}